target datalayout = "e-m:e-p270:32:32-p271:32:32-p272:64:64-i64:64-i128:128-f80:128-n8:16:32:64-S128"
target triple = "x86_64-pc-linux-gnu"

%"class.std::unique_ptr" = type { %"struct.std::__uniq_ptr_data" }
%"struct.std::__uniq_ptr_data" = type { %"class.std::__uniq_ptr_impl" }
%"class.std::__uniq_ptr_impl" = type { %"class.std::tuple" }
%"class.std::tuple" = type { %"struct.std::_Tuple_impl" }
%"struct.std::_Tuple_impl" = type { %"struct.std::_Head_base.1" }
%"struct.std::_Head_base.1" = type { ptr }
%"class.std::basic_string_view" = type { i64, ptr }
%"class.evmone::Tracer" = type { ptr, %"class.std::unique_ptr" }
%"class.std::basic_string_view.32" = type { i64, ptr }
%"class.evmone::(anonymous namespace)::InstructionCounter" = type { %"class.evmone::Tracer", %"class.std::stack.39", %"struct.std::array.46", %"class.std::basic_string_view" }
%"class.std::stack.39" = type { %"class.std::deque.40" }
%"class.std::deque.40" = type { %"class.std::_Deque_base.41" }
%"class.std::_Deque_base.41" = type { %"struct.std::_Deque_base<std::basic_string_view<unsigned char, evmc::byte_traits<unsigned char>>, std::allocator<std::basic_string_view<unsigned char, evmc::byte_traits<unsigned char>>>>::_Deque_impl" }
%"struct.std::_Deque_base<std::basic_string_view<unsigned char, evmc::byte_traits<unsigned char>>, std::allocator<std::basic_string_view<unsigned char, evmc::byte_traits<unsigned char>>>>::_Deque_impl" = type { %"struct.std::_Deque_base<std::basic_string_view<unsigned char, evmc::byte_traits<unsigned char>>, std::allocator<std::basic_string_view<unsigned char, evmc::byte_traits<unsigned char>>>>::_Deque_impl_data" }
%"struct.std::_Deque_base<std::basic_string_view<unsigned char, evmc::byte_traits<unsigned char>>, std::allocator<std::basic_string_view<unsigned char, evmc::byte_traits<unsigned char>>>>::_Deque_impl_data" = type { ptr, i64, %"struct.std::_Deque_iterator.45", %"struct.std::_Deque_iterator.45" }
%"struct.std::_Deque_iterator.45" = type { ptr, ptr, ptr, ptr }
%"struct.std::array.46" = type { [256 x i32] }

; Function Attrs: mustprogress nounwind uwtable
define linkonce_odr hidden noundef nonnull align 8 dereferenceable(16) ptr @_ZNSt5stackISt17basic_string_viewIhN4evmc11byte_traitsIhEEESt5dequeIS4_SaIS4_EEE7emplaceIJRS4_EEEDcDpOT_(ptr noundef nonnull align 8 dereferenceable(80) %0, ptr noundef nonnull align 8 dereferenceable(16) %1) #0 comdat align 2 {
  %3 = alloca ptr, align 8
  %4 = alloca ptr, align 8
  store ptr %0, ptr %3, align 8, !tbaa !212
  store ptr %1, ptr %4, align 8, !tbaa !140
  %5 = load ptr, ptr %3, align 8
  %6 = getelementptr inbounds nuw %"class.std::stack.39", ptr %5, i32 0, i32 0
  %7 = load ptr, ptr %4, align 8, !tbaa !140, !nonnull !8, !align !9
  %8 = call noundef nonnull align 8 dereferenceable(16) ptr @_ZNSt5dequeISt17basic_string_viewIhN4evmc11byte_traitsIhEEESaIS4_EE12emplace_backIJRS4_EEES8_DpOT_(ptr noundef nonnull align 8 dereferenceable(80) %6, ptr noundef nonnull align 8 dereferenceable(16) %7)
  ret ptr %8
}

; Function Attrs: mustprogress nounwind uwtable
define internal void @_ZN6evmone12_GLOBAL__N_118InstructionCounter18on_execution_startE13evmc_revisionRK12evmc_messageSt17basic_string_viewIhN4evmc11byte_traitsIhEEE(ptr noundef nonnull align 8 dereferenceable(1136) %0, i32 noundef %1, ptr noundef nonnull align 8 dereferenceable(184) %2, i64 %3, ptr %4) unnamed_addr #0 align 2 {
  %6 = alloca %"class.std::basic_string_view.32", align 8
  %7 = alloca ptr, align 8
  %8 = alloca i32, align 4
  %9 = alloca ptr, align 8
  %10 = getelementptr inbounds nuw { i64, ptr }, ptr %6, i32 0, i32 0
  store i64 %3, ptr %10, align 8
  %11 = getelementptr inbounds nuw { i64, ptr }, ptr %6, i32 0, i32 1
  store ptr %4, ptr %11, align 8
  store ptr %0, ptr %7, align 8, !tbaa !30
  store i32 %1, ptr %8, align 4, !tbaa !44
  store ptr %2, ptr %9, align 8, !tbaa !46
  %12 = load ptr, ptr %7, align 8
  %13 = getelementptr inbounds nuw %"class.evmone::(anonymous namespace)::InstructionCounter", ptr %12, i32 0, i32 1
  %14 = call noundef nonnull align 8 dereferenceable(16) ptr @_ZNSt5stackISt17basic_string_viewIhN4evmc11byte_traitsIhEEESt5dequeIS4_SaIS4_EEE7emplaceIJRS4_EEEDcDpOT_(ptr noundef nonnull align 8 dereferenceable(80) %13, ptr noundef nonnull align 8 dereferenceable(16) %6)
  ret void
}