; Function Attrs: mustprogress nounwind uwtable
define internal void @_ZN6evmone12_GLOBAL__N_118InstructionCounter18on_execution_startE13evmc_revisionRK12evmc_messageSt17basic_string_viewIhN4evmc11byte_traitsIhEEE(ptr noundef nonnull align 8 dereferenceable(1136) %0, i32 %1, ptr nonnull readnone align 8 captures(none) %2, i64 %3, ptr %4) unnamed_addr #0 align 2 {
  %6 = alloca %"class.std::basic_string_view.32", align 8
  store i64 %3, ptr %6, align 8
  %7 = getelementptr inbounds nuw i8, ptr %6, i64 8
  store ptr %4, ptr %7, align 8
  %8 = getelementptr inbounds nuw i8, ptr %0, i64 16
  %9 = call noundef nonnull align 8 dereferenceable(16) ptr @_ZNSt5dequeISt17basic_string_viewIhN4evmc11byte_traitsIhEEESaIS4_EE12emplace_backIJRS4_EEES8_DpOT_(ptr noundef nonnull align 8 dereferenceable(80) %8, ptr noundef nonnull align 8 dereferenceable(16) %6)
  ret void
}